; Function Attrs: nounwind uwtable
define internal fastcc ptr @kmac_new(ptr noundef %0) unnamed_addr #0 {
  %2 = tail call i32 @ossl_prov_is_running() #7
  %.not = icmp eq i32 %2, 0
  br i1 %.not, label %.split, label %3

3:                                                ; preds = %1
  %4 = tail call noalias ptr @CRYPTO_zalloc(i64 noundef 1256, ptr noundef nonnull @.str.2, i32 noundef 179) #7
  %5 = icmp eq ptr %4, null
  br i1 %5, label %.split, label %6

6:                                                ; preds = %3
  %7 = tail call ptr @EVP_MD_CTX_new() #7
  %8 = getelementptr inbounds nuw i8, ptr %4, i64 8
  store ptr %7, ptr %8, align 8, !tbaa !14
  %9 = icmp eq ptr %7, null
  br i1 %9, label %kmac_free.exit, label %17

kmac_free.exit:                                   ; preds = %6
  tail call void @EVP_MD_CTX_free(ptr noundef null) #7
  %10 = getelementptr inbounds nuw i8, ptr %4, i64 16
  tail call void @ossl_prov_digest_reset(ptr noundef nonnull %10) #7
  %11 = getelementptr inbounds nuw i8, ptr %4, i64 68
  %12 = getelementptr inbounds nuw i8, ptr %4, i64 48
  %13 = load i64, ptr %12, align 8, !tbaa !15
  tail call void @OPENSSL_cleanse(ptr noundef nonnull %11, i64 noundef %13) #7
  %14 = getelementptr inbounds nuw i8, ptr %4, i64 740
  %15 = getelementptr inbounds nuw i8, ptr %4, i64 56
  %16 = load i64, ptr %15, align 8, !tbaa !16
  tail call void @OPENSSL_cleanse(ptr noundef nonnull %14, i64 noundef %16) #7
  tail call void @CRYPTO_free(ptr noundef nonnull %4, ptr noundef nonnull @.str.2, i32 noundef 163) #7
  br label %.split

17:                                               ; preds = %6
  store ptr %0, ptr %4, align 8, !tbaa !3
  br label %.split

.split:                                           ; preds = %3, %kmac_free.exit, %1, %17
  %.0 = phi ptr [ %4, %17 ], [ null, %1 ], [ null, %kmac_free.exit ], [ null, %3 ]
  ret ptr %.0
}